; Function Attrs: nofree norecurse nosync nounwind memory(readwrite, inaccessiblemem: none) uwtable
define hidden void @Ushort565RgbToIntArgbScaleConvert(ptr noundef %0, ptr noundef %1, i32 noundef %2, i32 noundef %3, i32 noundef %4, i32 noundef %5, i32 noundef %6, i32 noundef %7, i32 noundef %8, ptr nocapture noundef readonly %9, ptr nocapture noundef readonly %10, ptr nocapture readnone %11, ptr nocapture readnone %12) #1 {
  %14 = getelementptr inbounds i8, ptr %9, i64 32
  %15 = load i32, ptr %14, align 8
  %16 = getelementptr inbounds i8, ptr %10, i64 32
  %17 = load i32, ptr %16, align 8
  %18 = shl i32 %2, 2
  %19 = sub i32 %17, %18
  %20 = sext i32 %19 to i64
  %21 = ptrtoint ptr %0 to i64
  %22 = sext i32 %15 to i64
  br label %23

23:                                               ; preds = %55, %13
  %.037 = phi ptr [ %1, %13 ], [ %57, %55 ]
  %.036 = phi i32 [ %5, %13 ], [ %58, %55 ]
  %.0 = phi i32 [ %3, %13 ], [ %59, %55 ]
  %24 = ashr i32 %.036, %8
  %25 = sext i32 %24 to i64
  %26 = mul nsw i64 %25, %22
  %27 = add nsw i64 %26, %21
  %28 = inttoptr i64 %27 to ptr
  br label %29

29:                                               ; preds = %29, %23
  %.039 = phi i32 [ %4, %23 ], [ %53, %29 ]
  %.038 = phi i32 [ %2, %23 ], [ %54, %29 ]
  %.1 = phi ptr [ %.037, %23 ], [ %52, %29 ]
  %30 = ashr i32 %.039, %8
  %31 = sext i32 %30 to i64
  %32 = getelementptr inbounds i16, ptr %28, i64 %31
  %33 = load i16, ptr %32, align 2
  %34 = zext i16 %33 to i32
  %35 = lshr i32 %34, 5
  %36 = and i32 %35, 63
  %37 = shl nuw nsw i32 %36, 2
  %38 = lshr i32 %36, 4
  %39 = or disjoint i32 %37, %38
  %40 = and i32 %34, 31
  %41 = shl nuw nsw i32 %40, 3
  %42 = lshr i32 %40, 2
  %43 = or disjoint i32 %41, %42
  %44 = and i32 %35, 1792
  %.mask = and i32 %34, 63488
  %45 = or disjoint i32 %.mask, %44
  %46 = or disjoint i32 %39, %45
  %47 = shl nuw nsw i32 %46, 8
  %48 = or disjoint i32 %47, %43
  %49 = or disjoint i32 %48, -16777216
  store i32 %49, ptr %.1, align 4
  %50 = ptrtoint ptr %.1 to i64
  %51 = add nsw i64 %50, 4
  %52 = inttoptr i64 %51 to ptr
  %53 = add nsw i32 %.039, %6
  %54 = add i32 %.038, -1
  %.not = icmp eq i32 %54, 0
  br i1 %.not, label %55, label %29, !llvm.loop !18

55:                                               ; preds = %29
  %56 = add nsw i64 %51, %20
  %57 = inttoptr i64 %56 to ptr
  %58 = add nsw i32 %.036, %7
  %59 = add i32 %.0, -1
  %.not41 = icmp eq i32 %59, 0
  br i1 %.not41, label %60, label %23, !llvm.loop !19

60:                                               ; preds = %55
  ret void
}